target datalayout = "e-m:e-p270:32:32-p271:32:32-p272:64:64-i64:64-i128:128-f80:128-n8:16:32:64-S128"
target triple = "x86_64-unknown-linux-gnu"

%struct.inode_operations = type { ptr, ptr, ptr, ptr, ptr, ptr, ptr, ptr, ptr, ptr, ptr, ptr, ptr, ptr, ptr, ptr, ptr, ptr, ptr, ptr, ptr, ptr, ptr, ptr, ptr, [56 x i8] }
%struct.pcpu_hot = type { %union.anon.12 }
%union.anon.12 = type { %struct.anon.13, [16 x i8] }
%struct.anon.13 = type { ptr, i32, i32, i64, i64, ptr, i16, i8 }

@.str = private unnamed_addr constant [5 x i8] c"self\00", align 1
@self_inum = internal global i32 0, section ".data..ro_after_init", align 4
@proc_self_inode_operations = internal constant %struct.inode_operations { ptr null, ptr @proc_self_get_link, ptr null, ptr null, ptr null, ptr null, ptr null, ptr null, ptr null, ptr null, ptr null, ptr null, ptr null, ptr null, ptr null, ptr null, ptr null, ptr null, ptr null, ptr null, ptr null, ptr null, ptr null, ptr null, ptr null, [56 x i8] undef }, align 64
@.str.1 = private unnamed_addr constant [46 x i8] c"\013proc_fill_super: can't allocate /proc/self\0A\00", align 1
@.str.2 = private unnamed_addr constant [3 x i8] c"%u\00", align 1
@pcpu_hot = external dso_local global %struct.pcpu_hot, section ".data..percpu..shared_aligned", align 64
@kmalloc_caches = external dso_local local_unnamed_addr global [3 x [14 x ptr]], align 16

; Function Attrs: fn_ret_thunk_extern nounwind null_pointer_is_valid
define dso_local noundef i32 @proc_setup_self(ptr noundef %0) local_unnamed_addr #0 align 16 {
  %2 = getelementptr inbounds i8, ptr %0, i64 104
  %3 = load ptr, ptr %2, align 8
  %4 = getelementptr inbounds i8, ptr %3, i64 48
  %5 = load ptr, ptr %4, align 8
  %6 = getelementptr inbounds i8, ptr %0, i64 872
  %7 = load ptr, ptr %6, align 8
  %8 = getelementptr inbounds i8, ptr %5, i64 160
  tail call void @down_write(ptr noundef %8) #6
  %9 = load ptr, ptr %2, align 8
  %10 = tail call ptr @d_alloc_name(ptr noundef %9, ptr noundef nonnull @.str) #6
  %11 = icmp eq ptr %10, null
  br i1 %11, label %24, label %12

12:                                               ; preds = %1
  %13 = tail call ptr @new_inode(ptr noundef %0) #6
  %14 = icmp eq ptr %13, null
  br i1 %14, label %23, label %15

15:                                               ; preds = %12
  %16 = load i32, ptr @self_inum, align 4
  %17 = zext i32 %16 to i64
  %18 = getelementptr inbounds i8, ptr %13, i64 64
  store i64 %17, ptr %18, align 8
  %19 = tail call { i64, i64 } @simple_inode_init_ts(ptr noundef nonnull %13) #6
  store i16 -24065, ptr %13, align 8
  %20 = getelementptr inbounds i8, ptr %13, i64 4
  store i32 0, ptr %20, align 4
  %21 = getelementptr inbounds i8, ptr %13, i64 8
  store i32 0, ptr %21, align 8
  %22 = getelementptr inbounds i8, ptr %13, i64 32
  store ptr @proc_self_inode_operations, ptr %22, align 8
  tail call void @d_add(ptr noundef nonnull %10, ptr noundef nonnull %13) #6
  br label %24

23:                                               ; preds = %12
  tail call void @dput(ptr noundef nonnull %10) #6
  br label %24

24:                                               ; preds = %23, %15, %1
  %25 = phi i1 [ false, %1 ], [ true, %15 ], [ false, %23 ]
  %26 = phi i32 [ -12, %1 ], [ 0, %15 ], [ -12, %23 ]
  tail call void @up_write(ptr noundef %8) #6
  br i1 %25, label %29, label %27

27:                                               ; preds = %24
  %28 = tail call i32 (ptr, ...) @_printk(ptr noundef nonnull @.str.1) #7
  br label %31

29:                                               ; preds = %24
  %30 = getelementptr inbounds i8, ptr %7, i64 8
  store ptr %10, ptr %30, align 8
  br label %31

31:                                               ; preds = %29, %27
  ret i32 %26
}

; Function Attrs: null_pointer_is_valid
declare dso_local ptr @d_alloc_name(ptr noundef, ptr noundef) local_unnamed_addr #1

; Function Attrs: null_pointer_is_valid
declare dso_local ptr @new_inode(ptr noundef) local_unnamed_addr #1

; Function Attrs: null_pointer_is_valid
declare dso_local { i64, i64 } @simple_inode_init_ts(ptr noundef) local_unnamed_addr #1

; Function Attrs: null_pointer_is_valid
declare dso_local void @d_add(ptr noundef, ptr noundef) local_unnamed_addr #1

; Function Attrs: null_pointer_is_valid
declare dso_local void @dput(ptr noundef) local_unnamed_addr #1

; Function Attrs: cold null_pointer_is_valid
declare dso_local i32 @_printk(ptr noundef, ...) local_unnamed_addr #2

; Function Attrs: cold fn_ret_thunk_extern nounwind null_pointer_is_valid optsize
define dso_local void @proc_self_init() local_unnamed_addr #3 section ".init.text" align 16 {
  %1 = tail call i32 @proc_alloc_inum(ptr noundef nonnull @self_inum) #6
  ret void
}

; Function Attrs: null_pointer_is_valid
declare dso_local i32 @proc_alloc_inum(ptr noundef) local_unnamed_addr #1

; Function Attrs: null_pointer_is_valid
declare dso_local void @down_write(ptr noundef) local_unnamed_addr #1

; Function Attrs: fn_ret_thunk_extern nounwind null_pointer_is_valid
define internal noundef ptr @proc_self_get_link(ptr noundef readnone %0, ptr nocapture noundef readonly %1, ptr nocapture noundef writeonly %2) #0 align 16 {
  %4 = getelementptr inbounds i8, ptr %1, i64 40
  %5 = load ptr, ptr %4, align 8
  %6 = getelementptr inbounds i8, ptr %5, i64 872
  %7 = load ptr, ptr %6, align 8
  %8 = load ptr, ptr %7, align 8
  %9 = tail call i64 asm "movq %gs:${1:P}, $0", "=r,p,~{dirflag},~{fpsr},~{flags}"(ptr nonnull @pcpu_hot) #8, !srcloc !5
  %10 = inttoptr i64 %9 to ptr
  %11 = tail call i32 @__task_pid_nr_ns(ptr noundef %10, i32 noundef 1, ptr noundef %8) #6
  %12 = icmp eq i32 %11, 0
  br i1 %12, label %24, label %13

13:                                               ; preds = %3
  %14 = icmp eq ptr %0, null
  %15 = select i1 %14, i32 2080, i32 3264
  %16 = load ptr, ptr getelementptr inbounds ([3 x [14 x ptr]], ptr @kmalloc_caches, i64 0, i64 0, i64 4), align 16
  %17 = tail call noalias align 8 dereferenceable_or_null(11) ptr @kmalloc_trace(ptr noundef %16, i32 noundef %15, i64 noundef 11) #9
  %18 = icmp eq ptr %17, null
  br i1 %18, label %19, label %21, !prof !6

19:                                               ; preds = %13
  %20 = select i1 %14, ptr inttoptr (i64 -10 to ptr), ptr inttoptr (i64 -12 to ptr)
  br label %24

21:                                               ; preds = %13
  %22 = tail call i32 (ptr, ptr, ...) @sprintf(ptr noundef nonnull dereferenceable(1) %17, ptr noundef nonnull dereferenceable(1) @.str.2, i32 noundef %11) #6
  store ptr @kfree_link, ptr %2, align 8
  %23 = getelementptr inbounds i8, ptr %2, i64 8
  store ptr %17, ptr %23, align 8
  br label %24

24:                                               ; preds = %21, %19, %3
  %25 = phi ptr [ %17, %21 ], [ inttoptr (i64 -2 to ptr), %3 ], [ %20, %19 ]
  ret ptr %25
}

; Function Attrs: nofree nounwind null_pointer_is_valid
declare dso_local noundef i32 @sprintf(ptr noalias nocapture noundef writeonly, ptr nocapture noundef readonly, ...) local_unnamed_addr #4

; Function Attrs: null_pointer_is_valid
declare dso_local void @kfree_link(ptr noundef) #1

; Function Attrs: null_pointer_is_valid
declare dso_local i32 @__task_pid_nr_ns(ptr noundef, i32 noundef, ptr noundef) local_unnamed_addr #1

; Function Attrs: null_pointer_is_valid allocsize(2)
declare dso_local noalias ptr @kmalloc_trace(ptr noundef, i32 noundef, i64 noundef) local_unnamed_addr #5

; Function Attrs: null_pointer_is_valid
declare dso_local void @up_write(ptr noundef) local_unnamed_addr #1


!llvm.module.flags = !{!0, !1, !2, !3, !4}

!0 = !{i32 1, !"wchar_size", i32 2}
!1 = !{i32 8, !"cf-protection-branch", i32 1}
!2 = !{i32 4, !"function_return_thunk_extern", i32 1}
!3 = !{i32 4, !"indirect_branch_cs_prefix", i32 1}
!4 = !{i32 4, !"SkipRaxSetup", i32 1}
!5 = !{i64 2147834993}
!6 = !{!"branch_weights", i32 1, i32 2000}
